; Function Attrs: nounwind uwtable
define zeroext range(i8 0, 2) i8 @l_Lean_Compiler_LCNF_allFVarM___at_Lean_Compiler_LCNF_Specialize_isGround___spec__1___rarg(ptr noundef %0, ptr noundef %1, ptr noundef %2) local_unnamed_addr #0 {
  %4 = getelementptr inbounds nuw i8, ptr %0, i64 16
  %5 = load ptr, ptr %4, align 8, !tbaa !4
  %6 = ptrtoint ptr %5 to i64
  %7 = and i64 %6, 1
  %.not = icmp eq i64 %7, 0
  br i1 %.not, label %8, label %lean_inc.exit

8:                                                ; preds = %3
  %.val.i = load i32, ptr %5, align 4, !tbaa !8
  %9 = icmp sgt i32 %.val.i, 0
  br i1 %9, label %10, label %12, !prof !11

10:                                               ; preds = %8
  %11 = add nuw i32 %.val.i, 1
  store i32 %11, ptr %5, align 4, !tbaa !8
  br label %lean_inc.exit

12:                                               ; preds = %8
  %.not.i16 = icmp eq i32 %.val.i, 0
  br i1 %.not.i16, label %lean_inc.exit, label %13

13:                                               ; preds = %12
  tail call void @lean_inc_ref_cold(ptr noundef nonnull %5) #4
  br label %lean_inc.exit

lean_inc.exit:                                    ; preds = %13, %12, %10, %3
  %14 = ptrtoint ptr %0 to i64
  %15 = and i64 %14, 1
  %.not20 = icmp eq i64 %15, 0
  br i1 %.not20, label %16, label %lean_dec.exit13

16:                                               ; preds = %lean_inc.exit
  %17 = load i32, ptr %0, align 4, !tbaa !8
  %18 = icmp sgt i32 %17, 1
  br i1 %18, label %19, label %21, !prof !11

19:                                               ; preds = %16
  %20 = add nsw i32 %17, -1
  store i32 %20, ptr %0, align 4, !tbaa !8
  br label %lean_dec.exit13

21:                                               ; preds = %16
  %.not.i = icmp eq i32 %17, 0
  br i1 %.not.i, label %lean_dec.exit13, label %22

22:                                               ; preds = %21
  tail call void @lean_dec_ref_cold(ptr noundef nonnull %0) #4
  br label %lean_dec.exit13

lean_dec.exit13:                                  ; preds = %22, %21, %19, %lean_inc.exit
  tail call void @lean_inc_heartbeat() #4
  %23 = tail call noalias ptr @mi_malloc_small(i64 noundef 32) #4
  %24 = icmp eq ptr %23, null
  br i1 %24, label %25, label %lean_alloc_closure.exit

25:                                               ; preds = %lean_dec.exit13
  tail call void @lean_internal_panic_out_of_memory() #5
  unreachable

lean_alloc_closure.exit:                          ; preds = %lean_dec.exit13
  %26 = getelementptr inbounds nuw i8, ptr %23, i64 4
  store i32 1, ptr %23, align 4, !tbaa !8
  store i32 -184549344, ptr %26, align 4
  %27 = getelementptr inbounds nuw i8, ptr %23, i64 8
  store ptr @l_Lean_Compiler_LCNF_allFVarM_go___at_Lean_Compiler_LCNF_allFVar___spec__2, ptr %27, align 8, !tbaa !4
  %28 = getelementptr inbounds nuw i8, ptr %23, i64 16
  store i16 2, ptr %28, align 8, !tbaa !16
  %29 = getelementptr inbounds nuw i8, ptr %23, i64 18
  store i16 1, ptr %29, align 2, !tbaa !16
  %30 = getelementptr inbounds nuw i8, ptr %23, i64 24
  store ptr %1, ptr %30, align 8, !tbaa !4
  %31 = load ptr, ptr @l_Lean_Compiler_LCNF_allFVarM___at_Lean_Compiler_LCNF_Specialize_isGround___spec__1___rarg___closed__1, align 8, !tbaa !4
  %32 = tail call ptr @lean_apply_4(ptr noundef %5, ptr noundef nonnull inttoptr (i64 1 to ptr), ptr noundef %31, ptr noundef nonnull %23, ptr noundef %2) #4
  %33 = ptrtoint ptr %32 to i64
  %34 = and i64 %33, 1
  %.not.i17 = icmp eq i64 %34, 0
  br i1 %.not.i17, label %lean_obj_tag.exit.thread, label %lean_obj_tag.exit

lean_obj_tag.exit:                                ; preds = %lean_alloc_closure.exit
  %35 = and i64 %33, 8589934590
  %36 = icmp ne i64 %35, 0
  %spec.select = zext i1 %36 to i8
  br label %lean_dec.exit

lean_obj_tag.exit.thread:                         ; preds = %lean_alloc_closure.exit
  %37 = getelementptr i8, ptr %32, i64 4
  %.val.i18 = load i32, ptr %37, align 4
  %38 = icmp ult i32 %.val.i18, 16777216
  br i1 %38, label %lean_dec.exit, label %.thread

.thread:                                          ; preds = %lean_obj_tag.exit.thread
  %39 = load i32, ptr %32, align 4, !tbaa !8
  %40 = icmp sgt i32 %39, 1
  br i1 %40, label %41, label %43, !prof !11

41:                                               ; preds = %.thread
  %42 = add nsw i32 %39, -1
  store i32 %42, ptr %32, align 4, !tbaa !8
  br label %lean_dec.exit

43:                                               ; preds = %.thread
  %.not.i14 = icmp eq i32 %39, 0
  br i1 %.not.i14, label %lean_dec.exit, label %44

44:                                               ; preds = %43
  tail call void @lean_dec_ref_cold(ptr noundef nonnull %32) #4
  br label %lean_dec.exit

lean_dec.exit:                                    ; preds = %lean_obj_tag.exit, %41, %43, %44, %lean_obj_tag.exit.thread
  %.0 = phi i8 [ 0, %lean_obj_tag.exit.thread ], [ 1, %44 ], [ 1, %43 ], [ 1, %41 ], [ %spec.select, %lean_obj_tag.exit ]
  ret i8 %.0
}